target datalayout = "e-m:e-p270:32:32-p271:32:32-p272:64:64-i64:64-i128:128-f80:128-n8:16:32:64-S128"
target triple = "x86_64-pc-linux-gnu"

%struct._someip_payload_parameter_item = type { i32, ptr, i32, i32, ptr, ptr }
%struct._someip_payload_parameter_struct = type { i32, ptr, i32, i32, i8, i32, ptr }

@dynamic_hf_struct = internal global ptr null, align 8
@dynamic_hf_struct_size = internal global i32 0, align 4

; Function Attrs: null_pointer_is_valid sspstrong uwtable
define internal void @update_dynamic_struct_hf_entry(ptr noundef %0, ptr noundef %1, ptr noundef %2) #0 {
  %4 = alloca ptr, align 8
  %5 = alloca ptr, align 8
  %6 = alloca ptr, align 8
  %7 = alloca ptr, align 8
  %8 = alloca ptr, align 8
  %9 = alloca i32, align 4
  %10 = alloca i32, align 4
  %11 = alloca ptr, align 8
  store ptr %0, ptr %4, align 8
  store ptr %1, ptr %5, align 8
  store ptr %2, ptr %6, align 8
  call void @llvm.lifetime.start.p0(i64 8, ptr %7) #19
  %12 = load ptr, ptr %6, align 8
  store ptr %12, ptr %7, align 8
  call void @llvm.lifetime.start.p0(i64 8, ptr %8) #19
  %13 = load ptr, ptr %5, align 8
  store ptr %13, ptr %8, align 8
  call void @llvm.lifetime.start.p0(i64 4, ptr %9) #19
  store i32 0, ptr %9, align 4
  store i32 0, ptr %9, align 4
  br label %14

14:                                               ; preds = %60, %3
  %15 = load i32, ptr %9, align 4
  %16 = load ptr, ptr %8, align 8
  %17 = getelementptr inbounds nuw %struct._someip_payload_parameter_struct, ptr %16, i32 0, i32 5
  %18 = load i32, ptr %17, align 4
  %19 = icmp ult i32 %15, %18
  br i1 %19, label %20, label %63

20:                                               ; preds = %14
  %21 = load ptr, ptr %7, align 8
  %22 = load i32, ptr %21, align 4
  %23 = load i32, ptr @dynamic_hf_struct_size, align 4
  %24 = icmp uge i32 %22, %23
  br i1 %24, label %25, label %26

25:                                               ; preds = %20
  store i32 1, ptr %10, align 4
  br label %64

26:                                               ; preds = %20
  call void @llvm.lifetime.start.p0(i64 8, ptr %11) #19
  %27 = load ptr, ptr %8, align 8
  %28 = getelementptr inbounds nuw %struct._someip_payload_parameter_struct, ptr %27, i32 0, i32 6
  %29 = load ptr, ptr %28, align 8
  %30 = load i32, ptr %9, align 4
  %31 = zext i32 %30 to i64
  %32 = getelementptr %struct._someip_payload_parameter_item, ptr %29, i64 %31
  store ptr %32, ptr %11, align 8
  %33 = load ptr, ptr @dynamic_hf_struct, align 8
  %34 = load ptr, ptr %7, align 8
  %35 = load i32, ptr %34, align 4
  %36 = load ptr, ptr %11, align 8
  %37 = getelementptr inbounds nuw %struct._someip_payload_parameter_item, ptr %36, i32 0, i32 2
  %38 = load i32, ptr %37, align 8
  %39 = load ptr, ptr %11, align 8
  %40 = getelementptr inbounds nuw %struct._someip_payload_parameter_item, ptr %39, i32 0, i32 3
  %41 = load i32, ptr %40, align 4
  %42 = load ptr, ptr %11, align 8
  %43 = getelementptr inbounds nuw %struct._someip_payload_parameter_item, ptr %42, i32 0, i32 1
  %44 = load ptr, ptr %43, align 8
  %45 = load ptr, ptr %11, align 8
  %46 = getelementptr inbounds nuw %struct._someip_payload_parameter_item, ptr %45, i32 0, i32 5
  %47 = load ptr, ptr %46, align 8
  %48 = call ptr @update_dynamic_hf_entry(ptr noundef %33, i32 noundef %35, i32 noundef %38, i32 noundef %41, ptr noundef %44, ptr noundef %47)
  %49 = load ptr, ptr %11, align 8
  %50 = getelementptr inbounds nuw %struct._someip_payload_parameter_item, ptr %49, i32 0, i32 4
  store ptr %48, ptr %50, align 8
  %51 = load ptr, ptr %11, align 8
  %52 = getelementptr inbounds nuw %struct._someip_payload_parameter_item, ptr %51, i32 0, i32 4
  %53 = load ptr, ptr %52, align 8
  %54 = icmp ne ptr %53, null
  br i1 %54, label %55, label %59

55:                                               ; preds = %26
  %56 = load ptr, ptr %7, align 8
  %57 = load i32, ptr %56, align 4
  %58 = add i32 %57, 1
  store i32 %58, ptr %56, align 4
  br label %59

59:                                               ; preds = %55, %26
  call void @llvm.lifetime.end.p0(i64 8, ptr %11) #19
  br label %60

60:                                               ; preds = %59
  %61 = load i32, ptr %9, align 4
  %62 = add i32 %61, 1
  store i32 %62, ptr %9, align 4
  br label %14, !llvm.loop !35

63:                                               ; preds = %14
  store i32 0, ptr %10, align 4
  br label %64

64:                                               ; preds = %63, %25
  call void @llvm.lifetime.end.p0(i64 4, ptr %9) #19
  call void @llvm.lifetime.end.p0(i64 8, ptr %8) #19
  call void @llvm.lifetime.end.p0(i64 8, ptr %7) #19
  %65 = load i32, ptr %10, align 4
  switch i32 %65, label %67 [
    i32 0, label %66
    i32 1, label %66
  ]

66:                                               ; preds = %64, %64
  ret void

67:                                               ; preds = %64
  unreachable
}